target datalayout = "e-m:e-p270:32:32-p271:32:32-p272:64:64-i64:64-i128:128-f80:128-n8:16:32:64-S128"
target triple = "x86_64-pc-linux-gnu"

%struct.fstWriterContext = type { ptr, ptr, ptr, ptr, ptr, ptr, ptr, i64, ptr, ptr, ptr, i32, ptr, i32, i32, i32, i8, i64, i64, i32, i32, i64, i64, i32, i32, i32, i64, i32, double, ptr, ptr, i32, i64, i8, i8, i8, i8, i8, i64, i64, i64, i64, i64, i32, ptr, i32, i8, ptr, ptr, ptr, ptr, i32 }

@.str.14 = private unnamed_addr constant [3 x i8] c"%u\00", align 1

; Function Attrs: mustprogress uwtable
define i32 @fstWriterCreateEnumTable(ptr noundef %0, ptr noundef %1, i32 noundef %2, i32 noundef %3, ptr noundef %4, ptr noundef %5) #0 {
  %7 = alloca ptr, align 8
  %8 = alloca ptr, align 8
  %9 = alloca i32, align 4
  %10 = alloca i32, align 4
  %11 = alloca ptr, align 8
  %12 = alloca ptr, align 8
  %13 = alloca i32, align 4
  %14 = alloca ptr, align 8
  %15 = alloca ptr, align 8
  %16 = alloca i32, align 4
  %17 = alloca i32, align 4
  %18 = alloca i32, align 4
  %19 = alloca [16 x i8], align 16
  %20 = alloca i32, align 4
  %21 = alloca i32, align 4
  %22 = alloca i32, align 4
  %23 = alloca ptr, align 8
  %24 = alloca ptr, align 8
  %25 = alloca i32, align 4
  store ptr %0, ptr %7, align 8, !tbaa !50
  store ptr %1, ptr %8, align 8, !tbaa !6
  store i32 %2, ptr %9, align 4, !tbaa !11
  store i32 %3, ptr %10, align 4, !tbaa !11
  store ptr %4, ptr %11, align 8, !tbaa !42
  store ptr %5, ptr %12, align 8, !tbaa !42
  call void @llvm.lifetime.start.p0(i64 4, ptr %13) #15
  store i32 0, ptr %13, align 4, !tbaa !11
  call void @llvm.lifetime.start.p0(i64 8, ptr %14) #15
  store ptr null, ptr %14, align 8, !tbaa !82
  call void @llvm.lifetime.start.p0(i64 8, ptr %15) #15
  store ptr null, ptr %15, align 8, !tbaa !82
  call void @llvm.lifetime.start.p0(i64 4, ptr %16) #15
  store i32 0, ptr %16, align 4, !tbaa !11
  call void @llvm.lifetime.start.p0(i64 4, ptr %17) #15
  store i32 0, ptr %17, align 4, !tbaa !11
  call void @llvm.lifetime.start.p0(i64 4, ptr %18) #15
  call void @llvm.lifetime.start.p0(i64 16, ptr %19) #15
  call void @llvm.lifetime.start.p0(i64 4, ptr %20) #15
  call void @llvm.lifetime.start.p0(i64 4, ptr %21) #15
  call void @llvm.lifetime.start.p0(i64 4, ptr %22) #15
  store i32 0, ptr %22, align 4, !tbaa !11
  call void @llvm.lifetime.start.p0(i64 8, ptr %23) #15
  store ptr null, ptr %23, align 8, !tbaa !6
  %26 = load ptr, ptr %7, align 8, !tbaa !50
  %27 = icmp ne ptr %26, null
  br i1 %27, label %28, label %290

28:                                               ; preds = %6
  %29 = load ptr, ptr %8, align 8, !tbaa !6
  %30 = icmp ne ptr %29, null
  br i1 %30, label %31, label %290

31:                                               ; preds = %28
  %32 = load ptr, ptr %11, align 8, !tbaa !42
  %33 = icmp ne ptr %32, null
  br i1 %33, label %34, label %290

34:                                               ; preds = %31
  %35 = load ptr, ptr %12, align 8, !tbaa !42
  %36 = icmp ne ptr %35, null
  br i1 %36, label %37, label %290

37:                                               ; preds = %34
  %38 = load i32, ptr %9, align 4, !tbaa !11
  %39 = icmp ne i32 %38, 0
  br i1 %39, label %40, label %290

40:                                               ; preds = %37
  call void @llvm.lifetime.start.p0(i64 8, ptr %24) #15
  %41 = load ptr, ptr %7, align 8, !tbaa !50
  store ptr %41, ptr %24, align 8, !tbaa !13
  call void @llvm.lifetime.start.p0(i64 4, ptr %25) #15
  %42 = load ptr, ptr %8, align 8, !tbaa !6
  %43 = call i64 @strlen(ptr noundef %42) #17
  %44 = trunc i64 %43 to i32
  store i32 %44, ptr %18, align 4, !tbaa !11
  %45 = getelementptr inbounds [16 x i8], ptr %19, i64 0, i64 0
  %46 = load i32, ptr %9, align 4, !tbaa !11
  %47 = call i32 (ptr, i64, ptr, ...) @snprintf(ptr noundef %45, i64 noundef 16, ptr noundef @.str.14, i32 noundef %46) #15
  store i32 %47, ptr %20, align 4, !tbaa !11
  %48 = load i32, ptr %9, align 4, !tbaa !11
  %49 = zext i32 %48 to i64
  %50 = call noalias ptr @calloc(i64 noundef %49, i64 noundef 4) #16
  store ptr %50, ptr %14, align 8, !tbaa !82
  %51 = load i32, ptr %9, align 4, !tbaa !11
  %52 = zext i32 %51 to i64
  %53 = call noalias ptr @calloc(i64 noundef %52, i64 noundef 4) #16
  store ptr %53, ptr %15, align 8, !tbaa !82
  store i32 0, ptr %25, align 4, !tbaa !11
  br label %54

54:                                               ; preds = %129, %40
  %55 = load i32, ptr %25, align 4, !tbaa !11
  %56 = load i32, ptr %9, align 4, !tbaa !11
  %57 = icmp ult i32 %55, %56
  br i1 %57, label %58, label %132

58:                                               ; preds = %54
  %59 = load ptr, ptr %11, align 8, !tbaa !42
  %60 = load i32, ptr %25, align 4, !tbaa !11
  %61 = zext i32 %60 to i64
  %62 = getelementptr inbounds nuw ptr, ptr %59, i64 %61
  %63 = load ptr, ptr %62, align 8, !tbaa !6
  %64 = call i64 @strlen(ptr noundef %63) #17
  %65 = trunc i64 %64 to i32
  %66 = load ptr, ptr %14, align 8, !tbaa !82
  %67 = load i32, ptr %25, align 4, !tbaa !11
  %68 = zext i32 %67 to i64
  %69 = getelementptr inbounds nuw i32, ptr %66, i64 %68
  store i32 %65, ptr %69, align 4, !tbaa !11
  %70 = load ptr, ptr %11, align 8, !tbaa !42
  %71 = load i32, ptr %25, align 4, !tbaa !11
  %72 = zext i32 %71 to i64
  %73 = getelementptr inbounds nuw ptr, ptr %70, i64 %72
  %74 = load ptr, ptr %73, align 8, !tbaa !6
  %75 = load ptr, ptr %14, align 8, !tbaa !82
  %76 = load i32, ptr %25, align 4, !tbaa !11
  %77 = zext i32 %76 to i64
  %78 = getelementptr inbounds nuw i32, ptr %75, i64 %77
  %79 = load i32, ptr %78, align 4, !tbaa !11
  %80 = call i32 @fstUtilityBinToEscConvertedLen(ptr noundef %74, i32 noundef %79)
  %81 = load i32, ptr %16, align 4, !tbaa !11
  %82 = add nsw i32 %81, %80
  store i32 %82, ptr %16, align 4, !tbaa !11
  %83 = load ptr, ptr %12, align 8, !tbaa !42
  %84 = load i32, ptr %25, align 4, !tbaa !11
  %85 = zext i32 %84 to i64
  %86 = getelementptr inbounds nuw ptr, ptr %83, i64 %85
  %87 = load ptr, ptr %86, align 8, !tbaa !6
  %88 = call i64 @strlen(ptr noundef %87) #17
  %89 = trunc i64 %88 to i32
  %90 = load ptr, ptr %15, align 8, !tbaa !82
  %91 = load i32, ptr %25, align 4, !tbaa !11
  %92 = zext i32 %91 to i64
  %93 = getelementptr inbounds nuw i32, ptr %90, i64 %92
  store i32 %89, ptr %93, align 4, !tbaa !11
  %94 = load ptr, ptr %12, align 8, !tbaa !42
  %95 = load i32, ptr %25, align 4, !tbaa !11
  %96 = zext i32 %95 to i64
  %97 = getelementptr inbounds nuw ptr, ptr %94, i64 %96
  %98 = load ptr, ptr %97, align 8, !tbaa !6
  %99 = load ptr, ptr %15, align 8, !tbaa !82
  %100 = load i32, ptr %25, align 4, !tbaa !11
  %101 = zext i32 %100 to i64
  %102 = getelementptr inbounds nuw i32, ptr %99, i64 %101
  %103 = load i32, ptr %102, align 4, !tbaa !11
  %104 = call i32 @fstUtilityBinToEscConvertedLen(ptr noundef %98, i32 noundef %103)
  %105 = load i32, ptr %17, align 4, !tbaa !11
  %106 = add nsw i32 %105, %104
  store i32 %106, ptr %17, align 4, !tbaa !11
  %107 = load i32, ptr %10, align 4, !tbaa !11
  %108 = icmp ugt i32 %107, 0
  br i1 %108, label %109, label %128

109:                                              ; preds = %58
  %110 = load ptr, ptr %15, align 8, !tbaa !82
  %111 = load i32, ptr %25, align 4, !tbaa !11
  %112 = zext i32 %111 to i64
  %113 = getelementptr inbounds nuw i32, ptr %110, i64 %112
  %114 = load i32, ptr %113, align 4, !tbaa !11
  %115 = load i32, ptr %10, align 4, !tbaa !11
  %116 = icmp ult i32 %114, %115
  br i1 %116, label %117, label %127

117:                                              ; preds = %109
  %118 = load i32, ptr %10, align 4, !tbaa !11
  %119 = load ptr, ptr %15, align 8, !tbaa !82
  %120 = load i32, ptr %25, align 4, !tbaa !11
  %121 = zext i32 %120 to i64
  %122 = getelementptr inbounds nuw i32, ptr %119, i64 %121
  %123 = load i32, ptr %122, align 4, !tbaa !11
  %124 = sub i32 %118, %123
  %125 = load i32, ptr %17, align 4, !tbaa !11
  %126 = add i32 %125, %124
  store i32 %126, ptr %17, align 4, !tbaa !11
  br label %127

127:                                              ; preds = %117, %109
  br label %128

128:                                              ; preds = %127, %58
  br label %129

129:                                              ; preds = %128
  %130 = load i32, ptr %25, align 4, !tbaa !11
  %131 = add i32 %130, 1
  store i32 %131, ptr %25, align 4, !tbaa !11
  br label %54, !llvm.loop !127

132:                                              ; preds = %54
  %133 = load i32, ptr %18, align 4, !tbaa !11
  %134 = add nsw i32 %133, 1
  %135 = load i32, ptr %20, align 4, !tbaa !11
  %136 = add nsw i32 %134, %135
  %137 = add nsw i32 %136, 1
  %138 = load i32, ptr %16, align 4, !tbaa !11
  %139 = add nsw i32 %137, %138
  %140 = load i32, ptr %9, align 4, !tbaa !11
  %141 = add i32 %139, %140
  %142 = load i32, ptr %17, align 4, !tbaa !11
  %143 = add i32 %141, %142
  %144 = load i32, ptr %9, align 4, !tbaa !11
  %145 = add i32 %143, %144
  store i32 %145, ptr %21, align 4, !tbaa !11
  %146 = load i32, ptr %21, align 4, !tbaa !11
  %147 = sext i32 %146 to i64
  %148 = call noalias ptr @malloc(i64 noundef %147) #18
  store ptr %148, ptr %23, align 8, !tbaa !6
  store i32 0, ptr %22, align 4, !tbaa !11
  %149 = load ptr, ptr %23, align 8, !tbaa !6
  %150 = load i32, ptr %22, align 4, !tbaa !11
  %151 = sext i32 %150 to i64
  %152 = getelementptr inbounds i8, ptr %149, i64 %151
  %153 = load ptr, ptr %8, align 8, !tbaa !6
  %154 = load i32, ptr %18, align 4, !tbaa !11
  %155 = sext i32 %154 to i64
  call void @llvm.memcpy.p0.p0.i64(ptr align 1 %152, ptr align 1 %153, i64 %155, i1 false)
  %156 = load i32, ptr %18, align 4, !tbaa !11
  %157 = load i32, ptr %22, align 4, !tbaa !11
  %158 = add nsw i32 %157, %156
  store i32 %158, ptr %22, align 4, !tbaa !11
  %159 = load ptr, ptr %23, align 8, !tbaa !6
  %160 = load i32, ptr %22, align 4, !tbaa !11
  %161 = add nsw i32 %160, 1
  store i32 %161, ptr %22, align 4, !tbaa !11
  %162 = sext i32 %160 to i64
  %163 = getelementptr inbounds i8, ptr %159, i64 %162
  store i8 32, ptr %163, align 1, !tbaa !34
  %164 = load ptr, ptr %23, align 8, !tbaa !6
  %165 = load i32, ptr %22, align 4, !tbaa !11
  %166 = sext i32 %165 to i64
  %167 = getelementptr inbounds i8, ptr %164, i64 %166
  %168 = getelementptr inbounds [16 x i8], ptr %19, i64 0, i64 0
  %169 = load i32, ptr %20, align 4, !tbaa !11
  %170 = sext i32 %169 to i64
  call void @llvm.memcpy.p0.p0.i64(ptr align 1 %167, ptr align 16 %168, i64 %170, i1 false)
  %171 = load i32, ptr %20, align 4, !tbaa !11
  %172 = load i32, ptr %22, align 4, !tbaa !11
  %173 = add nsw i32 %172, %171
  store i32 %173, ptr %22, align 4, !tbaa !11
  %174 = load ptr, ptr %23, align 8, !tbaa !6
  %175 = load i32, ptr %22, align 4, !tbaa !11
  %176 = add nsw i32 %175, 1
  store i32 %176, ptr %22, align 4, !tbaa !11
  %177 = sext i32 %175 to i64
  %178 = getelementptr inbounds i8, ptr %174, i64 %177
  store i8 32, ptr %178, align 1, !tbaa !34
  store i32 0, ptr %25, align 4, !tbaa !11
  br label %179

179:                                              ; preds = %206, %132
  %180 = load i32, ptr %25, align 4, !tbaa !11
  %181 = load i32, ptr %9, align 4, !tbaa !11
  %182 = icmp ult i32 %180, %181
  br i1 %182, label %183, label %209

183:                                              ; preds = %179
  %184 = load ptr, ptr %23, align 8, !tbaa !6
  %185 = load i32, ptr %22, align 4, !tbaa !11
  %186 = sext i32 %185 to i64
  %187 = getelementptr inbounds i8, ptr %184, i64 %186
  %188 = load ptr, ptr %11, align 8, !tbaa !42
  %189 = load i32, ptr %25, align 4, !tbaa !11
  %190 = zext i32 %189 to i64
  %191 = getelementptr inbounds nuw ptr, ptr %188, i64 %190
  %192 = load ptr, ptr %191, align 8, !tbaa !6
  %193 = load ptr, ptr %14, align 8, !tbaa !82
  %194 = load i32, ptr %25, align 4, !tbaa !11
  %195 = zext i32 %194 to i64
  %196 = getelementptr inbounds nuw i32, ptr %193, i64 %195
  %197 = load i32, ptr %196, align 4, !tbaa !11
  %198 = call i32 @fstUtilityBinToEsc(ptr noundef %187, ptr noundef %192, i32 noundef %197)
  %199 = load i32, ptr %22, align 4, !tbaa !11
  %200 = add nsw i32 %199, %198
  store i32 %200, ptr %22, align 4, !tbaa !11
  %201 = load ptr, ptr %23, align 8, !tbaa !6
  %202 = load i32, ptr %22, align 4, !tbaa !11
  %203 = add nsw i32 %202, 1
  store i32 %203, ptr %22, align 4, !tbaa !11
  %204 = sext i32 %202 to i64
  %205 = getelementptr inbounds i8, ptr %201, i64 %204
  store i8 32, ptr %205, align 1, !tbaa !34
  br label %206

206:                                              ; preds = %183
  %207 = load i32, ptr %25, align 4, !tbaa !11
  %208 = add i32 %207, 1
  store i32 %208, ptr %25, align 4, !tbaa !11
  br label %179, !llvm.loop !128

209:                                              ; preds = %179
  store i32 0, ptr %25, align 4, !tbaa !11
  br label %210

210:                                              ; preds = %271, %209
  %211 = load i32, ptr %25, align 4, !tbaa !11
  %212 = load i32, ptr %9, align 4, !tbaa !11
  %213 = icmp ult i32 %211, %212
  br i1 %213, label %214, label %274

214:                                              ; preds = %210
  %215 = load i32, ptr %10, align 4, !tbaa !11
  %216 = icmp ugt i32 %215, 0
  br i1 %216, label %217, label %248

217:                                              ; preds = %214
  %218 = load ptr, ptr %15, align 8, !tbaa !82
  %219 = load i32, ptr %25, align 4, !tbaa !11
  %220 = zext i32 %219 to i64
  %221 = getelementptr inbounds nuw i32, ptr %218, i64 %220
  %222 = load i32, ptr %221, align 4, !tbaa !11
  %223 = load i32, ptr %10, align 4, !tbaa !11
  %224 = icmp ult i32 %222, %223
  br i1 %224, label %225, label %247

225:                                              ; preds = %217
  %226 = load ptr, ptr %23, align 8, !tbaa !6
  %227 = load i32, ptr %22, align 4, !tbaa !11
  %228 = sext i32 %227 to i64
  %229 = getelementptr inbounds i8, ptr %226, i64 %228
  %230 = load i32, ptr %10, align 4, !tbaa !11
  %231 = load ptr, ptr %15, align 8, !tbaa !82
  %232 = load i32, ptr %25, align 4, !tbaa !11
  %233 = zext i32 %232 to i64
  %234 = getelementptr inbounds nuw i32, ptr %231, i64 %233
  %235 = load i32, ptr %234, align 4, !tbaa !11
  %236 = sub i32 %230, %235
  %237 = zext i32 %236 to i64
  call void @llvm.memset.p0.i64(ptr align 1 %229, i8 48, i64 %237, i1 false)
  %238 = load i32, ptr %10, align 4, !tbaa !11
  %239 = load ptr, ptr %15, align 8, !tbaa !82
  %240 = load i32, ptr %25, align 4, !tbaa !11
  %241 = zext i32 %240 to i64
  %242 = getelementptr inbounds nuw i32, ptr %239, i64 %241
  %243 = load i32, ptr %242, align 4, !tbaa !11
  %244 = sub i32 %238, %243
  %245 = load i32, ptr %22, align 4, !tbaa !11
  %246 = add i32 %245, %244
  store i32 %246, ptr %22, align 4, !tbaa !11
  br label %247

247:                                              ; preds = %225, %217
  br label %248

248:                                              ; preds = %247, %214
  %249 = load ptr, ptr %23, align 8, !tbaa !6
  %250 = load i32, ptr %22, align 4, !tbaa !11
  %251 = sext i32 %250 to i64
  %252 = getelementptr inbounds i8, ptr %249, i64 %251
  %253 = load ptr, ptr %12, align 8, !tbaa !42
  %254 = load i32, ptr %25, align 4, !tbaa !11
  %255 = zext i32 %254 to i64
  %256 = getelementptr inbounds nuw ptr, ptr %253, i64 %255
  %257 = load ptr, ptr %256, align 8, !tbaa !6
  %258 = load ptr, ptr %15, align 8, !tbaa !82
  %259 = load i32, ptr %25, align 4, !tbaa !11
  %260 = zext i32 %259 to i64
  %261 = getelementptr inbounds nuw i32, ptr %258, i64 %260
  %262 = load i32, ptr %261, align 4, !tbaa !11
  %263 = call i32 @fstUtilityBinToEsc(ptr noundef %252, ptr noundef %257, i32 noundef %262)
  %264 = load i32, ptr %22, align 4, !tbaa !11
  %265 = add nsw i32 %264, %263
  store i32 %265, ptr %22, align 4, !tbaa !11
  %266 = load ptr, ptr %23, align 8, !tbaa !6
  %267 = load i32, ptr %22, align 4, !tbaa !11
  %268 = add nsw i32 %267, 1
  store i32 %268, ptr %22, align 4, !tbaa !11
  %269 = sext i32 %267 to i64
  %270 = getelementptr inbounds i8, ptr %266, i64 %269
  store i8 32, ptr %270, align 1, !tbaa !34
  br label %271

271:                                              ; preds = %248
  %272 = load i32, ptr %25, align 4, !tbaa !11
  %273 = add i32 %272, 1
  store i32 %273, ptr %25, align 4, !tbaa !11
  br label %210, !llvm.loop !129

274:                                              ; preds = %210
  %275 = load ptr, ptr %23, align 8, !tbaa !6
  %276 = load i32, ptr %22, align 4, !tbaa !11
  %277 = sub nsw i32 %276, 1
  %278 = sext i32 %277 to i64
  %279 = getelementptr inbounds i8, ptr %275, i64 %278
  store i8 0, ptr %279, align 1, !tbaa !34
  %280 = load ptr, ptr %24, align 8, !tbaa !13
  %281 = load ptr, ptr %23, align 8, !tbaa !6
  %282 = load ptr, ptr %24, align 8, !tbaa !13
  %283 = getelementptr inbounds nuw %struct.fstWriterContext, ptr %282, i32 0, i32 51
  %284 = load i32, ptr %283, align 8, !tbaa !130
  %285 = add i32 %284, 1
  store i32 %285, ptr %283, align 8, !tbaa !130
  store i32 %285, ptr %13, align 4, !tbaa !11
  %286 = zext i32 %285 to i64
  call void @fstWriterSetAttrBegin(ptr noundef %280, i32 noundef 0, i32 noundef 7, ptr noundef %281, i64 noundef %286)
  %287 = load ptr, ptr %23, align 8, !tbaa !6
  call void @free(ptr noundef %287) #15
  %288 = load ptr, ptr %15, align 8, !tbaa !82
  call void @free(ptr noundef %288) #15
  %289 = load ptr, ptr %14, align 8, !tbaa !82
  call void @free(ptr noundef %289) #15
  call void @llvm.lifetime.end.p0(i64 4, ptr %25) #15
  call void @llvm.lifetime.end.p0(i64 8, ptr %24) #15
  br label %290

290:                                              ; preds = %274, %37, %34, %31, %28, %6
  %291 = load i32, ptr %13, align 4, !tbaa !11
  call void @llvm.lifetime.end.p0(i64 8, ptr %23) #15
  call void @llvm.lifetime.end.p0(i64 4, ptr %22) #15
  call void @llvm.lifetime.end.p0(i64 4, ptr %21) #15
  call void @llvm.lifetime.end.p0(i64 4, ptr %20) #15
  call void @llvm.lifetime.end.p0(i64 16, ptr %19) #15
  call void @llvm.lifetime.end.p0(i64 4, ptr %18) #15
  call void @llvm.lifetime.end.p0(i64 4, ptr %17) #15
  call void @llvm.lifetime.end.p0(i64 4, ptr %16) #15
  call void @llvm.lifetime.end.p0(i64 8, ptr %15) #15
  call void @llvm.lifetime.end.p0(i64 8, ptr %14) #15
  call void @llvm.lifetime.end.p0(i64 4, ptr %13) #15
  ret i32 %291
}