; Function Attrs: mustprogress nounwind uwtable
define i32 @fstWriterCreateEnumTable(ptr noundef captures(address_is_null) %0, ptr noundef readonly captures(address_is_null) %1, i32 noundef %2, i32 noundef %3, ptr noundef readonly captures(address_is_null) %4, ptr noundef readonly captures(address_is_null) %5) local_unnamed_addr #0 {
  %7 = alloca [16 x i8], align 16
  call void @llvm.lifetime.start.p0(i64 16, ptr nonnull %7) #39
  %8 = icmp ne ptr %0, null
  %9 = icmp ne ptr %1, null
  %or.cond = and i1 %8, %9
  %10 = icmp ne ptr %4, null
  %or.cond3 = and i1 %or.cond, %10
  %11 = icmp ne ptr %5, null
  %or.cond5 = and i1 %or.cond3, %11
  %12 = icmp ne i32 %2, 0
  %or.cond7 = and i1 %12, %or.cond5
  br i1 %or.cond7, label %13, label %101

13:                                               ; preds = %6
  %14 = tail call i64 @strlen(ptr noundef nonnull dereferenceable(1) %1) #40
  %15 = call i32 (ptr, i64, ptr, ...) @snprintf(ptr noundef nonnull dereferenceable(1) %7, i64 noundef 16, ptr noundef nonnull @.str.14, i32 noundef %2) #39
  %16 = zext i32 %2 to i64
  %17 = tail call noalias ptr @calloc(i64 noundef %16, i64 noundef 4) #38
  %18 = tail call noalias ptr @calloc(i64 noundef %16, i64 noundef 4) #38
  br label %19

19:                                               ; preds = %13, %19
  %indvars.iv = phi i64 [ 0, %13 ], [ %indvars.iv.next, %19 ]
  %.0117132 = phi i32 [ 0, %13 ], [ %26, %19 ]
  %.0118131 = phi i32 [ 0, %13 ], [ %.1119, %19 ]
  %20 = getelementptr inbounds nuw ptr, ptr %4, i64 %indvars.iv
  %21 = load ptr, ptr %20, align 8, !tbaa !28
  %22 = tail call i64 @strlen(ptr noundef nonnull dereferenceable(1) %21) #40
  %23 = trunc i64 %22 to i32
  %24 = getelementptr inbounds nuw i32, ptr %17, i64 %indvars.iv
  store i32 %23, ptr %24, align 4, !tbaa !51
  %25 = tail call i32 @fstUtilityBinToEscConvertedLen(ptr noundef nonnull %21, i32 noundef %23)
  %26 = add nsw i32 %25, %.0117132
  %27 = getelementptr inbounds nuw ptr, ptr %5, i64 %indvars.iv
  %28 = load ptr, ptr %27, align 8, !tbaa !28
  %29 = tail call i64 @strlen(ptr noundef nonnull dereferenceable(1) %28) #40
  %30 = trunc i64 %29 to i32
  %31 = getelementptr inbounds nuw i32, ptr %18, i64 %indvars.iv
  store i32 %30, ptr %31, align 4, !tbaa !51
  %32 = tail call i32 @fstUtilityBinToEscConvertedLen(ptr noundef nonnull %28, i32 noundef %30)
  %33 = add nsw i32 %32, %.0118131
  %34 = tail call i32 @llvm.usub.sat.i32(i32 %3, i32 %30)
  %.1119 = add i32 %33, %34
  %indvars.iv.next = add nuw nsw i64 %indvars.iv, 1
  %exitcond.not = icmp eq i64 %indvars.iv.next, %16
  br i1 %exitcond.not, label %35, label %19, !llvm.loop !108

35:                                               ; preds = %19
  %36 = trunc i64 %14 to i32
  %37 = add nsw i32 %36, 1
  %38 = add nsw i32 %37, %15
  %39 = add nsw i32 %38, 1
  %factor = shl i32 %2, 1
  %40 = add i32 %39, %factor
  %41 = add i32 %40, %.1119
  %42 = add i32 %41, %26
  %43 = sext i32 %42 to i64
  %44 = tail call noalias ptr @malloc(i64 noundef %43) #41
  %sext = shl i64 %14, 32
  %45 = ashr exact i64 %sext, 32
  tail call void @llvm.memcpy.p0.p0.i64(ptr align 1 %44, ptr nonnull align 1 %1, i64 %45, i1 false)
  %46 = getelementptr inbounds i8, ptr %44, i64 %45
  store i8 32, ptr %46, align 1, !tbaa !6
  %47 = sext i32 %37 to i64
  %48 = getelementptr inbounds i8, ptr %44, i64 %47
  %49 = sext i32 %15 to i64
  call void @llvm.memcpy.p0.p0.i64(ptr align 1 %48, ptr nonnull align 16 %7, i64 %49, i1 false)
  %50 = sext i32 %38 to i64
  %51 = getelementptr inbounds i8, ptr %44, i64 %50
  store i8 32, ptr %51, align 1, !tbaa !6
  br label %63

.preheader:                                       ; preds = %63
  %.not = icmp eq i32 %3, 0
  br i1 %.not, label %.preheader.split.us, label %.preheader.split

.preheader.split.us:                              ; preds = %.preheader, %.preheader.split.us
  %indvars.iv153 = phi i64 [ %indvars.iv.next154, %.preheader.split.us ], [ 0, %.preheader ]
  %.1115136.us = phi i32 [ %60, %.preheader.split.us ], [ %72, %.preheader ]
  %52 = sext i32 %.1115136.us to i64
  %53 = getelementptr inbounds i8, ptr %44, i64 %52
  %54 = getelementptr inbounds nuw ptr, ptr %5, i64 %indvars.iv153
  %55 = load ptr, ptr %54, align 8, !tbaa !28
  %56 = getelementptr inbounds nuw i32, ptr %18, i64 %indvars.iv153
  %57 = load i32, ptr %56, align 4, !tbaa !51
  %58 = tail call i32 @fstUtilityBinToEsc(ptr noundef %53, ptr noundef %55, i32 noundef %57)
  %59 = add nsw i32 %58, %.1115136.us
  %60 = add nsw i32 %59, 1
  %61 = sext i32 %59 to i64
  %62 = getelementptr inbounds i8, ptr %44, i64 %61
  store i8 32, ptr %62, align 1, !tbaa !6
  %indvars.iv.next154 = add nuw nsw i64 %indvars.iv153, 1
  %exitcond157.not = icmp eq i64 %indvars.iv.next154, %16
  br i1 %exitcond157.not, label %.split.us, label %.preheader.split.us, !llvm.loop !109

63:                                               ; preds = %35, %63
  %indvars.iv143 = phi i64 [ 0, %35 ], [ %indvars.iv.next144, %63 ]
  %.0114134 = phi i32 [ %39, %35 ], [ %72, %63 ]
  %64 = sext i32 %.0114134 to i64
  %65 = getelementptr inbounds i8, ptr %44, i64 %64
  %66 = getelementptr inbounds nuw ptr, ptr %4, i64 %indvars.iv143
  %67 = load ptr, ptr %66, align 8, !tbaa !28
  %68 = getelementptr inbounds nuw i32, ptr %17, i64 %indvars.iv143
  %69 = load i32, ptr %68, align 4, !tbaa !51
  %70 = tail call i32 @fstUtilityBinToEsc(ptr noundef %65, ptr noundef %67, i32 noundef %69)
  %71 = add nsw i32 %70, %.0114134
  %72 = add nsw i32 %71, 1
  %73 = sext i32 %71 to i64
  %74 = getelementptr inbounds i8, ptr %44, i64 %73
  store i8 32, ptr %74, align 1, !tbaa !6
  %indvars.iv.next144 = add nuw nsw i64 %indvars.iv143, 1
  %exitcond147.not = icmp eq i64 %indvars.iv.next144, %16
  br i1 %exitcond147.not, label %.preheader, label %63, !llvm.loop !110

.preheader.split:                                 ; preds = %.preheader, %84
  %indvars.iv148 = phi i64 [ %indvars.iv.next149, %84 ], [ 0, %.preheader ]
  %.1115136 = phi i32 [ %91, %84 ], [ %72, %.preheader ]
  %75 = getelementptr inbounds nuw i32, ptr %18, i64 %indvars.iv148
  %76 = load i32, ptr %75, align 4, !tbaa !51
  %77 = icmp ult i32 %76, %3
  br i1 %77, label %78, label %84

78:                                               ; preds = %.preheader.split
  %79 = sext i32 %.1115136 to i64
  %80 = getelementptr inbounds i8, ptr %44, i64 %79
  %81 = sub nuw i32 %3, %76
  %82 = zext i32 %81 to i64
  tail call void @llvm.memset.p0.i64(ptr align 1 %80, i8 48, i64 %82, i1 false)
  %83 = add i32 %81, %.1115136
  br label %84

84:                                               ; preds = %.preheader.split, %78
  %.2116 = phi i32 [ %83, %78 ], [ %.1115136, %.preheader.split ]
  %85 = sext i32 %.2116 to i64
  %86 = getelementptr inbounds i8, ptr %44, i64 %85
  %87 = getelementptr inbounds nuw ptr, ptr %5, i64 %indvars.iv148
  %88 = load ptr, ptr %87, align 8, !tbaa !28
  %89 = tail call i32 @fstUtilityBinToEsc(ptr noundef %86, ptr noundef %88, i32 noundef %76)
  %90 = add nsw i32 %89, %.2116
  %91 = add nsw i32 %90, 1
  %92 = sext i32 %90 to i64
  %93 = getelementptr inbounds i8, ptr %44, i64 %92
  store i8 32, ptr %93, align 1, !tbaa !6
  %indvars.iv.next149 = add nuw nsw i64 %indvars.iv148, 1
  %exitcond152.not = icmp eq i64 %indvars.iv.next149, %16
  br i1 %exitcond152.not, label %.split.us, label %.preheader.split, !llvm.loop !109

.split.us:                                        ; preds = %84, %.preheader.split.us
  %.us-phi = phi i32 [ %60, %.preheader.split.us ], [ %91, %84 ]
  %94 = sext i32 %.us-phi to i64
  %95 = getelementptr i8, ptr %44, i64 %94
  %96 = getelementptr i8, ptr %95, i64 -1
  store i8 0, ptr %96, align 1, !tbaa !6
  %97 = getelementptr inbounds nuw i8, ptr %0, i64 336
  %98 = load i32, ptr %97, align 8, !tbaa !111
  %99 = add i32 %98, 1
  store i32 %99, ptr %97, align 8, !tbaa !111
  %100 = zext i32 %99 to i64
  tail call void @fstWriterSetAttrBegin(ptr noundef nonnull %0, i32 noundef 0, i32 noundef 7, ptr noundef nonnull %44, i64 noundef %100)
  tail call void @free(ptr noundef nonnull %44) #39
  tail call void @free(ptr noundef nonnull %18) #39
  tail call void @free(ptr noundef %17) #39
  br label %101

101:                                              ; preds = %.split.us, %6
  %.0113 = phi i32 [ %99, %.split.us ], [ 0, %6 ]
  call void @llvm.lifetime.end.p0(i64 16, ptr nonnull %7) #39
  ret i32 %.0113
}